target datalayout = "e-m:e-p270:32:32-p271:32:32-p272:64:64-i64:64-i128:128-f80:128-n8:16:32:64-S128"
target triple = "x86_64-pc-linux-gnu"

%class.btVector3 = type { [4 x float] }
%class.btSoftMultiBodyDynamicsWorld = type <{ %class.btMultiBodyDynamicsWorld, %class.btAlignedObjectArray.20, i32, i8, i8, i8, i8, %struct.btSoftBodyWorldInfo, ptr, i8, [7 x i8] }>
%class.btMultiBodyDynamicsWorld = type { %class.btDiscreteDynamicsWorld.base, [4 x i8], %class.btAlignedObjectArray.8, %class.btAlignedObjectArray.10, %class.btAlignedObjectArray.10, ptr, ptr, %class.btAlignedObjectArray.12, %class.btAlignedObjectArray.14, %class.btAlignedObjectArray.12, %class.btAlignedObjectArray.14, %class.btAlignedObjectArray.16, %class.btAlignedObjectArray.14, %class.btAlignedObjectArray.18 }
%class.btDiscreteDynamicsWorld.base = type <{ %class.btDynamicsWorld, %class.btAlignedObjectArray.0, ptr, ptr, ptr, %class.btAlignedObjectArray.0, %class.btAlignedObjectArray.2, %class.btVector3, float, float, i8, i8, i8, i8, [4 x i8], %class.btAlignedObjectArray.4, i32, i8, [3 x i8], %class.btAlignedObjectArray.6, %class.btSpinMutex }>
%class.btDynamicsWorld = type { %class.btCollisionWorld.base, ptr, ptr, ptr, %struct.btContactSolverInfo }
%class.btCollisionWorld.base = type <{ ptr, %class.btAlignedObjectArray, ptr, %struct.btDispatcherInfo, ptr, ptr, i8 }>
%class.btAlignedObjectArray = type <{ [4 x i8], i32, i32, [4 x i8], ptr, i8, [7 x i8] }>
%struct.btDispatcherInfo = type <{ float, i32, i32, float, i8, [7 x i8], ptr, i8, i8, i8, i8, float, i8, [3 x i8], float, i8, [7 x i8] }>
%struct.btContactSolverInfo = type { %struct.btContactSolverInfoData }
%struct.btContactSolverInfoData = type { float, float, float, float, float, i32, float, float, float, float, float, float, float, float, float, float, i32, float, float, float, float, float, i32, i32, i32, float, float, float, float, i8, i8, i32, i32 }
%class.btAlignedObjectArray.0 = type <{ [4 x i8], i32, i32, [4 x i8], ptr, i8, [7 x i8] }>
%class.btAlignedObjectArray.2 = type <{ [4 x i8], i32, i32, [4 x i8], ptr, i8, [7 x i8] }>
%class.btAlignedObjectArray.4 = type <{ [4 x i8], i32, i32, [4 x i8], ptr, i8, [7 x i8] }>
%class.btAlignedObjectArray.6 = type <{ [4 x i8], i32, i32, [4 x i8], ptr, i8, [7 x i8] }>
%class.btSpinMutex = type { i32 }
%class.btAlignedObjectArray.8 = type <{ [4 x i8], i32, i32, [4 x i8], ptr, i8, [7 x i8] }>
%class.btAlignedObjectArray.10 = type <{ [4 x i8], i32, i32, [4 x i8], ptr, i8, [7 x i8] }>
%class.btAlignedObjectArray.12 = type <{ [4 x i8], i32, i32, [4 x i8], ptr, i8, [7 x i8] }>
%class.btAlignedObjectArray.16 = type <{ [4 x i8], i32, i32, [4 x i8], ptr, i8, [7 x i8] }>
%class.btAlignedObjectArray.14 = type <{ [4 x i8], i32, i32, [4 x i8], ptr, i8, [7 x i8] }>
%class.btAlignedObjectArray.18 = type <{ [4 x i8], i32, i32, [4 x i8], ptr, i8, [7 x i8] }>
%class.btAlignedObjectArray.20 = type <{ [4 x i8], i32, i32, [4 x i8], ptr, i8, [7 x i8] }>
%struct.btSoftBodyWorldInfo = type { float, float, float, float, %class.btVector3, ptr, ptr, %class.btVector3, %struct.btSparseSdf }
%struct.btSparseSdf = type { %class.btAlignedObjectArray.22, float, float, i32, i32, i32, i32, i32, [4 x i8] }
%class.btAlignedObjectArray.22 = type <{ [4 x i8], i32, i32, [4 x i8], ptr, i8, [7 x i8] }>
%class.CProfileSample = type { i8 }
%class.btSoftBodySolver = type <{ ptr, i32, i32, float, [4 x i8] }>

@.str.1 = private unnamed_addr constant [21 x i8] c"solveSoftConstraints\00", align 1

; Function Attrs: mustprogress nounwind uwtable
define linkonce_odr dso_local noundef float @_ZN16btSoftBodySolver12getTimeScaleEv(ptr noundef nonnull align 8 dereferenceable(20) %0) #1 comdat align 2 {
  %2 = alloca ptr, align 8
  store ptr %0, ptr %2, align 8, !tbaa !22
  %3 = load ptr, ptr %2, align 8
  %4 = getelementptr inbounds nuw %class.btSoftBodySolver, ptr %3, i32 0, i32 3
  %5 = load float, ptr %4, align 8, !tbaa !135
  ret float %5
}

; Function Attrs: inlinehint mustprogress nounwind uwtable
define linkonce_odr dso_local noundef nonnull align 8 dereferenceable(8) ptr @_ZN20btAlignedObjectArrayIP10btSoftBodyEixEi(ptr noundef nonnull align 8 dereferenceable(25) %0, i32 noundef %1) #5 comdat align 2 {
  %3 = alloca ptr, align 8
  %4 = alloca i32, align 4
  store ptr %0, ptr %3, align 8, !tbaa !98
  store i32 %1, ptr %4, align 4, !tbaa !9
  %5 = load ptr, ptr %3, align 8
  %6 = getelementptr inbounds nuw %class.btAlignedObjectArray.20, ptr %5, i32 0, i32 4
  %7 = load ptr, ptr %6, align 8, !tbaa !134
  %8 = load i32, ptr %4, align 4, !tbaa !9
  %9 = sext i32 %8 to i64
  %10 = getelementptr inbounds ptr, ptr %7, i64 %9
  ret ptr %10
}

; Function Attrs: inlinehint mustprogress nounwind uwtable
define linkonce_odr dso_local noundef i32 @_ZNK20btAlignedObjectArrayIP10btSoftBodyE4sizeEv(ptr noundef nonnull align 8 dereferenceable(25) %0) #5 comdat align 2 {
  %2 = alloca ptr, align 8
  store ptr %0, ptr %2, align 8, !tbaa !98
  %3 = load ptr, ptr %2, align 8
  %4 = getelementptr inbounds nuw %class.btAlignedObjectArray.20, ptr %3, i32 0, i32 1
  %5 = load i32, ptr %4, align 4, !tbaa !133
  ret i32 %5
}

; Function Attrs: mustprogress uwtable
define dso_local void @_ZN28btSoftMultiBodyDynamicsWorld26solveSoftBodiesConstraintsEf(ptr noundef nonnull align 8 dereferenceable(1025) %0, float noundef %1) #2 align 2 personality ptr @__gxx_personality_v0 {
  %3 = alloca ptr, align 8
  %4 = alloca float, align 4
  %5 = alloca %class.CProfileSample, align 1
  %6 = alloca ptr, align 8
  %7 = alloca i32, align 4
  store ptr %0, ptr %3, align 8, !tbaa !12
  store float %1, ptr %4, align 4, !tbaa !96
  %8 = load ptr, ptr %3, align 8
  call void @llvm.lifetime.start.p0(i64 1, ptr %5) #14
  call void @_ZN14CProfileSampleC1EPKc(ptr noundef nonnull align 1 dereferenceable(1) %5, ptr noundef @.str.1)
  %9 = getelementptr inbounds nuw %class.btSoftMultiBodyDynamicsWorld, ptr %8, i32 0, i32 1
  %10 = invoke noundef i32 @_ZNK20btAlignedObjectArrayIP10btSoftBodyE4sizeEv(ptr noundef nonnull align 8 dereferenceable(25) %9)
          to label %11 unwind label %16

11:                                               ; preds = %2
  %12 = icmp ne i32 %10, 0
  br i1 %12, label %13, label %20

13:                                               ; preds = %11
  %14 = getelementptr inbounds nuw %class.btSoftMultiBodyDynamicsWorld, ptr %8, i32 0, i32 1
  invoke void @_ZN10btSoftBody13solveClustersERK20btAlignedObjectArrayIPS_E(ptr noundef nonnull align 8 dereferenceable(25) %14)
          to label %15 unwind label %16

15:                                               ; preds = %13
  br label %20

16:                                               ; preds = %27, %20, %13, %2
  %17 = landingpad { ptr, i32 }
          cleanup
  %18 = extractvalue { ptr, i32 } %17, 0
  store ptr %18, ptr %6, align 8
  %19 = extractvalue { ptr, i32 } %17, 1
  store i32 %19, ptr %7, align 4
  call void @_ZN14CProfileSampleD1Ev(ptr noundef nonnull align 1 dereferenceable(1) %5) #14
  call void @llvm.lifetime.end.p0(i64 1, ptr %5) #14
  br label %33

20:                                               ; preds = %15, %11
  %21 = getelementptr inbounds nuw %class.btSoftMultiBodyDynamicsWorld, ptr %8, i32 0, i32 8
  %22 = load ptr, ptr %21, align 8, !tbaa !26
  %23 = load float, ptr %4, align 4, !tbaa !96
  %24 = getelementptr inbounds nuw %class.btSoftMultiBodyDynamicsWorld, ptr %8, i32 0, i32 8
  %25 = load ptr, ptr %24, align 8, !tbaa !26
  %26 = invoke noundef float @_ZN16btSoftBodySolver12getTimeScaleEv(ptr noundef nonnull align 8 dereferenceable(20) %25)
          to label %27 unwind label %16

27:                                               ; preds = %20
  %28 = fmul float %23, %26
  %29 = load ptr, ptr %22, align 8, !tbaa !24
  %30 = getelementptr inbounds ptr, ptr %29, i64 7
  %31 = load ptr, ptr %30, align 8
  invoke void %31(ptr noundef nonnull align 8 dereferenceable(20) %22, float noundef %28)
          to label %32 unwind label %16

32:                                               ; preds = %27
  call void @_ZN14CProfileSampleD1Ev(ptr noundef nonnull align 1 dereferenceable(1) %5) #14
  call void @llvm.lifetime.end.p0(i64 1, ptr %5) #14
  ret void

33:                                               ; preds = %16
  %34 = load ptr, ptr %6, align 8
  %35 = load i32, ptr %7, align 4
  %36 = insertvalue { ptr, i32 } poison, ptr %34, 0
  %37 = insertvalue { ptr, i32 } %36, i32 %35, 1
  resume { ptr, i32 } %37
}

; Function Attrs: mustprogress nounwind uwtable
define linkonce_odr dso_local noundef nonnull align 8 dereferenceable(25) ptr @_ZN28btSoftMultiBodyDynamicsWorld16getSoftBodyArrayEv(ptr noundef nonnull align 8 dereferenceable(1025) %0) #1 comdat align 2 {
  %2 = alloca ptr, align 8
  store ptr %0, ptr %2, align 8, !tbaa !12
  %3 = load ptr, ptr %2, align 8
  %4 = getelementptr inbounds nuw %class.btSoftMultiBodyDynamicsWorld, ptr %3, i32 0, i32 1
  ret ptr %4
}

; Function Attrs: mustprogress uwtable
define dso_local void @_ZN28btSoftMultiBodyDynamicsWorld28internalSingleStepSimulationEf(ptr noundef nonnull align 8 dereferenceable(1025) %0, float noundef %1) unnamed_addr #2 align 2 {
  %3 = alloca ptr, align 8
  %4 = alloca float, align 4
  %5 = alloca i32, align 4
  %6 = alloca ptr, align 8
  %7 = alloca i32, align 4
  %8 = alloca ptr, align 8
  store ptr %0, ptr %3, align 8, !tbaa !12
  store float %1, ptr %4, align 4, !tbaa !96
  %9 = load ptr, ptr %3, align 8
  %10 = getelementptr inbounds nuw %class.btSoftMultiBodyDynamicsWorld, ptr %9, i32 0, i32 8
  %11 = load ptr, ptr %10, align 8, !tbaa !26
  %12 = call noundef nonnull align 8 dereferenceable(25) ptr @_ZN28btSoftMultiBodyDynamicsWorld16getSoftBodyArrayEv(ptr noundef nonnull align 8 dereferenceable(1025) %9)
  %13 = load ptr, ptr %11, align 8, !tbaa !24
  %14 = getelementptr inbounds ptr, ptr %13, i64 4
  %15 = load ptr, ptr %14, align 8
  call void %15(ptr noundef nonnull align 8 dereferenceable(20) %11, ptr noundef nonnull align 8 dereferenceable(25) %12, i1 noundef zeroext false)
  %16 = getelementptr inbounds nuw %class.btSoftMultiBodyDynamicsWorld, ptr %9, i32 0, i32 8
  %17 = load ptr, ptr %16, align 8, !tbaa !26
  %18 = load ptr, ptr %17, align 8, !tbaa !24
  %19 = getelementptr inbounds ptr, ptr %18, i64 3
  %20 = load ptr, ptr %19, align 8
  %21 = call noundef zeroext i1 %20(ptr noundef nonnull align 8 dereferenceable(20) %17)
  br i1 %21, label %23, label %22

22:                                               ; preds = %2
  br label %23

23:                                               ; preds = %22, %2
  %24 = load float, ptr %4, align 4, !tbaa !96
  call void @_ZN23btDiscreteDynamicsWorld28internalSingleStepSimulationEf(ptr noundef nonnull align 8 dereferenceable(508) %9, float noundef %24)
  %25 = load float, ptr %4, align 4, !tbaa !96
  call void @_ZN28btSoftMultiBodyDynamicsWorld26solveSoftBodiesConstraintsEf(ptr noundef nonnull align 8 dereferenceable(1025) %9, float noundef %25)
  call void @llvm.lifetime.start.p0(i64 4, ptr %5) #14
  store i32 0, ptr %5, align 4, !tbaa !9
  br label %26

26:                                               ; preds = %39, %23
  %27 = load i32, ptr %5, align 4, !tbaa !9
  %28 = getelementptr inbounds nuw %class.btSoftMultiBodyDynamicsWorld, ptr %9, i32 0, i32 1
  %29 = call noundef i32 @_ZNK20btAlignedObjectArrayIP10btSoftBodyE4sizeEv(ptr noundef nonnull align 8 dereferenceable(25) %28)
  %30 = icmp slt i32 %27, %29
  br i1 %30, label %32, label %31

31:                                               ; preds = %26
  call void @llvm.lifetime.end.p0(i64 4, ptr %5) #14
  br label %42

32:                                               ; preds = %26
  call void @llvm.lifetime.start.p0(i64 8, ptr %6) #14
  %33 = getelementptr inbounds nuw %class.btSoftMultiBodyDynamicsWorld, ptr %9, i32 0, i32 1
  %34 = load i32, ptr %5, align 4, !tbaa !9
  %35 = call noundef nonnull align 8 dereferenceable(8) ptr @_ZN20btAlignedObjectArrayIP10btSoftBodyEixEi(ptr noundef nonnull align 8 dereferenceable(25) %33, i32 noundef %34)
  %36 = load ptr, ptr %35, align 8, !tbaa !129
  store ptr %36, ptr %6, align 8, !tbaa !129
  %37 = load ptr, ptr %6, align 8, !tbaa !129
  %38 = load ptr, ptr %6, align 8, !tbaa !129
  call void @_ZN10btSoftBody23defaultCollisionHandlerEPS_(ptr noundef nonnull align 8 dereferenceable(2064) %37, ptr noundef %38)
  call void @llvm.lifetime.end.p0(i64 8, ptr %6) #14
  br label %39

39:                                               ; preds = %32
  %40 = load i32, ptr %5, align 4, !tbaa !9
  %41 = add nsw i32 %40, 1
  store i32 %41, ptr %5, align 4, !tbaa !9
  br label %26, !llvm.loop !131

42:                                               ; preds = %31
  %43 = getelementptr inbounds nuw %class.btSoftMultiBodyDynamicsWorld, ptr %9, i32 0, i32 8
  %44 = load ptr, ptr %43, align 8, !tbaa !26
  %45 = load ptr, ptr %44, align 8, !tbaa !24
  %46 = getelementptr inbounds ptr, ptr %45, i64 8
  %47 = load ptr, ptr %46, align 8
  call void %47(ptr noundef nonnull align 8 dereferenceable(20) %44)
  call void @llvm.lifetime.start.p0(i64 4, ptr %7) #14
  store i32 0, ptr %7, align 4, !tbaa !9
  br label %48

48:                                               ; preds = %60, %42
  %49 = load i32, ptr %7, align 4, !tbaa !9
  %50 = getelementptr inbounds nuw %class.btSoftMultiBodyDynamicsWorld, ptr %9, i32 0, i32 1
  %51 = call noundef i32 @_ZNK20btAlignedObjectArrayIP10btSoftBodyE4sizeEv(ptr noundef nonnull align 8 dereferenceable(25) %50)
  %52 = icmp slt i32 %49, %51
  br i1 %52, label %54, label %53

53:                                               ; preds = %48
  call void @llvm.lifetime.end.p0(i64 4, ptr %7) #14
  br label %63

54:                                               ; preds = %48
  call void @llvm.lifetime.start.p0(i64 8, ptr %8) #14
  %55 = getelementptr inbounds nuw %class.btSoftMultiBodyDynamicsWorld, ptr %9, i32 0, i32 1
  %56 = load i32, ptr %7, align 4, !tbaa !9
  %57 = call noundef nonnull align 8 dereferenceable(8) ptr @_ZN20btAlignedObjectArrayIP10btSoftBodyEixEi(ptr noundef nonnull align 8 dereferenceable(25) %55, i32 noundef %56)
  %58 = load ptr, ptr %57, align 8, !tbaa !129
  store ptr %58, ptr %8, align 8, !tbaa !129
  %59 = load ptr, ptr %8, align 8, !tbaa !129
  call void @_ZN10btSoftBody21interpolateRenderMeshEv(ptr noundef nonnull align 8 dereferenceable(2064) %59)
  call void @llvm.lifetime.end.p0(i64 8, ptr %8) #14
  br label %60

60:                                               ; preds = %54
  %61 = load i32, ptr %7, align 4, !tbaa !9
  %62 = add nsw i32 %61, 1
  store i32 %62, ptr %7, align 4, !tbaa !9
  br label %48, !llvm.loop !132

63:                                               ; preds = %53
  ret void
}