; Function Attrs: mustprogress uwtable
define dso_local void @_ZN28btSoftMultiBodyDynamicsWorld28internalSingleStepSimulationEf(ptr noundef nonnull align 8 dereferenceable(1025) %0, float noundef %1) unnamed_addr #0 align 2 personality ptr @__gxx_personality_v0 {
  %3 = alloca %class.CProfileSample, align 1
  %4 = getelementptr inbounds nuw i8, ptr %0, i64 1016
  %5 = load ptr, ptr %4, align 8, !tbaa !36
  %6 = getelementptr inbounds nuw i8, ptr %0, i64 848
  %7 = load ptr, ptr %5, align 8, !tbaa !4
  %8 = getelementptr inbounds nuw i8, ptr %7, i64 32
  %9 = load ptr, ptr %8, align 8
  tail call void %9(ptr noundef nonnull align 8 dereferenceable(20) %5, ptr noundef nonnull align 8 dereferenceable(25) %6, i1 noundef zeroext false)
  %10 = load ptr, ptr %4, align 8, !tbaa !36
  %11 = load ptr, ptr %10, align 8, !tbaa !4
  %12 = getelementptr inbounds nuw i8, ptr %11, i64 24
  %13 = load ptr, ptr %12, align 8
  %14 = tail call noundef zeroext i1 %13(ptr noundef nonnull align 8 dereferenceable(20) %10)
  tail call void @_ZN23btDiscreteDynamicsWorld28internalSingleStepSimulationEf(ptr noundef nonnull align 8 dereferenceable(508) %0, float noundef %1)
  call void @llvm.lifetime.start.p0(i64 1, ptr nonnull %3) #15
  call void @_ZN14CProfileSampleC1EPKc(ptr noundef nonnull align 1 dereferenceable(1) %3, ptr noundef nonnull @.str.1)
  %15 = getelementptr inbounds nuw i8, ptr %0, i64 852
  %16 = load i32, ptr %15, align 4, !tbaa !16
  %.not.i = icmp eq i32 %16, 0
  br i1 %.not.i, label %20, label %17

17:                                               ; preds = %2
  invoke void @_ZN10btSoftBody13solveClustersERK20btAlignedObjectArrayIPS_E(ptr noundef nonnull align 8 dereferenceable(25) %6)
          to label %20 unwind label %18

18:                                               ; preds = %20, %17
  %19 = landingpad { ptr, i32 }
          cleanup
  call void @_ZN14CProfileSampleD1Ev(ptr noundef nonnull align 1 dereferenceable(1) %3) #15
  call void @llvm.lifetime.end.p0(i64 1, ptr nonnull %3) #15
  resume { ptr, i32 } %19

20:                                               ; preds = %17, %2
  %21 = load ptr, ptr %4, align 8, !tbaa !36
  %22 = getelementptr inbounds nuw i8, ptr %21, i64 16
  %23 = load float, ptr %22, align 8, !tbaa !114
  %24 = fmul float %1, %23
  %25 = load ptr, ptr %21, align 8, !tbaa !4
  %26 = getelementptr inbounds nuw i8, ptr %25, i64 56
  %27 = load ptr, ptr %26, align 8
  invoke void %27(ptr noundef nonnull align 8 dereferenceable(20) %21, float noundef %24)
          to label %_ZN28btSoftMultiBodyDynamicsWorld26solveSoftBodiesConstraintsEf.exit unwind label %18

_ZN28btSoftMultiBodyDynamicsWorld26solveSoftBodiesConstraintsEf.exit: ; preds = %20
  call void @_ZN14CProfileSampleD1Ev(ptr noundef nonnull align 1 dereferenceable(1) %3) #15
  call void @llvm.lifetime.end.p0(i64 1, ptr nonnull %3) #15
  %28 = load i32, ptr %15, align 4, !tbaa !16
  %29 = icmp sgt i32 %28, 0
  br i1 %29, label %.lr.ph, label %._crit_edge

.lr.ph:                                           ; preds = %_ZN28btSoftMultiBodyDynamicsWorld26solveSoftBodiesConstraintsEf.exit
  %30 = getelementptr inbounds nuw i8, ptr %0, i64 864
  br label %38

._crit_edge:                                      ; preds = %38, %_ZN28btSoftMultiBodyDynamicsWorld26solveSoftBodiesConstraintsEf.exit
  %31 = load ptr, ptr %4, align 8, !tbaa !36
  %32 = load ptr, ptr %31, align 8, !tbaa !4
  %33 = getelementptr inbounds nuw i8, ptr %32, i64 64
  %34 = load ptr, ptr %33, align 8
  call void %34(ptr noundef nonnull align 8 dereferenceable(20) %31)
  %35 = load i32, ptr %15, align 4, !tbaa !16
  %36 = icmp sgt i32 %35, 0
  br i1 %36, label %.lr.ph15, label %._crit_edge16

.lr.ph15:                                         ; preds = %._crit_edge
  %37 = getelementptr inbounds nuw i8, ptr %0, i64 864
  br label %45

38:                                               ; preds = %.lr.ph, %38
  %indvars.iv = phi i64 [ 0, %.lr.ph ], [ %indvars.iv.next, %38 ]
  %39 = load ptr, ptr %30, align 8, !tbaa !15
  %40 = getelementptr inbounds nuw ptr, ptr %39, i64 %indvars.iv
  %41 = load ptr, ptr %40, align 8, !tbaa !116
  call void @_ZN10btSoftBody23defaultCollisionHandlerEPS_(ptr noundef nonnull align 8 dereferenceable(2064) %41, ptr noundef %41)
  %indvars.iv.next = add nuw nsw i64 %indvars.iv, 1
  %42 = load i32, ptr %15, align 4, !tbaa !16
  %43 = sext i32 %42 to i64
  %44 = icmp slt i64 %indvars.iv.next, %43
  br i1 %44, label %38, label %._crit_edge, !llvm.loop !118

._crit_edge16:                                    ; preds = %45, %._crit_edge
  ret void

45:                                               ; preds = %.lr.ph15, %45
  %indvars.iv18 = phi i64 [ 0, %.lr.ph15 ], [ %indvars.iv.next19, %45 ]
  %46 = load ptr, ptr %37, align 8, !tbaa !15
  %47 = getelementptr inbounds nuw ptr, ptr %46, i64 %indvars.iv18
  %48 = load ptr, ptr %47, align 8, !tbaa !116
  call void @_ZN10btSoftBody21interpolateRenderMeshEv(ptr noundef nonnull align 8 dereferenceable(2064) %48)
  %indvars.iv.next19 = add nuw nsw i64 %indvars.iv18, 1
  %49 = load i32, ptr %15, align 4, !tbaa !16
  %50 = sext i32 %49 to i64
  %51 = icmp slt i64 %indvars.iv.next19, %50
  br i1 %51, label %45, label %._crit_edge16, !llvm.loop !119
}